target datalayout = "e-m:e-p270:32:32-p271:32:32-p272:64:64-i64:64-i128:128-f80:128-n8:16:32:64-S128"
target triple = "x86_64-pc-linux-gnu"

; Function Attrs: nounwind uwtable
define internal void @dc_left_4x4_c(ptr noundef %0, i64 noundef %1, ptr noundef %2, ptr noundef %3) #1 {
  %5 = alloca ptr, align 8
  %6 = alloca i64, align 8
  %7 = alloca ptr, align 8
  %8 = alloca ptr, align 8
  %9 = alloca ptr, align 8
  %10 = alloca ptr, align 8
  %11 = alloca i32, align 4
  store ptr %0, ptr %5, align 8, !tbaa !10
  store i64 %1, ptr %6, align 8, !tbaa !12
  store ptr %2, ptr %7, align 8, !tbaa !10
  store ptr %3, ptr %8, align 8, !tbaa !10
  call void @llvm.lifetime.start.p0(i64 8, ptr %9) #10
  %12 = load ptr, ptr %5, align 8, !tbaa !10
  store ptr %12, ptr %9, align 8, !tbaa !10
  call void @llvm.lifetime.start.p0(i64 8, ptr %10) #10
  %13 = load ptr, ptr %7, align 8, !tbaa !10
  store ptr %13, ptr %10, align 8, !tbaa !10
  call void @llvm.lifetime.start.p0(i64 4, ptr %11) #10
  %14 = load ptr, ptr %10, align 8, !tbaa !10
  %15 = getelementptr inbounds i8, ptr %14, i64 0
  %16 = load i8, ptr %15, align 1, !tbaa !14
  %17 = zext i8 %16 to i32
  %18 = load ptr, ptr %10, align 8, !tbaa !10
  %19 = getelementptr inbounds i8, ptr %18, i64 1
  %20 = load i8, ptr %19, align 1, !tbaa !14
  %21 = zext i8 %20 to i32
  %22 = add nsw i32 %17, %21
  %23 = load ptr, ptr %10, align 8, !tbaa !10
  %24 = getelementptr inbounds i8, ptr %23, i64 2
  %25 = load i8, ptr %24, align 1, !tbaa !14
  %26 = zext i8 %25 to i32
  %27 = add nsw i32 %22, %26
  %28 = load ptr, ptr %10, align 8, !tbaa !10
  %29 = getelementptr inbounds i8, ptr %28, i64 3
  %30 = load i8, ptr %29, align 1, !tbaa !14
  %31 = zext i8 %30 to i32
  %32 = add nsw i32 %27, %31
  %33 = add nsw i32 %32, 2
  %34 = ashr i32 %33, 2
  %35 = mul i32 %34, 16843009
  store i32 %35, ptr %11, align 4, !tbaa !15
  %36 = load i64, ptr %6, align 8, !tbaa !12
  %37 = udiv i64 %36, 1
  store i64 %37, ptr %6, align 8, !tbaa !12
  %38 = load i32, ptr %11, align 4, !tbaa !15
  %39 = load ptr, ptr %9, align 8, !tbaa !10
  %40 = load i64, ptr %6, align 8, !tbaa !12
  %41 = mul nsw i64 %40, 0
  %42 = getelementptr inbounds i8, ptr %39, i64 %41
  store i32 %38, ptr %42, align 4, !tbaa !14
  %43 = load i32, ptr %11, align 4, !tbaa !15
  %44 = load ptr, ptr %9, align 8, !tbaa !10
  %45 = load i64, ptr %6, align 8, !tbaa !12
  %46 = mul nsw i64 %45, 1
  %47 = getelementptr inbounds i8, ptr %44, i64 %46
  store i32 %43, ptr %47, align 4, !tbaa !14
  %48 = load i32, ptr %11, align 4, !tbaa !15
  %49 = load ptr, ptr %9, align 8, !tbaa !10
  %50 = load i64, ptr %6, align 8, !tbaa !12
  %51 = mul nsw i64 %50, 2
  %52 = getelementptr inbounds i8, ptr %49, i64 %51
  store i32 %48, ptr %52, align 4, !tbaa !14
  %53 = load i32, ptr %11, align 4, !tbaa !15
  %54 = load ptr, ptr %9, align 8, !tbaa !10
  %55 = load i64, ptr %6, align 8, !tbaa !12
  %56 = mul nsw i64 %55, 3
  %57 = getelementptr inbounds i8, ptr %54, i64 %56
  store i32 %53, ptr %57, align 4, !tbaa !14
  call void @llvm.lifetime.end.p0(i64 4, ptr %11) #10
  call void @llvm.lifetime.end.p0(i64 8, ptr %10) #10
  call void @llvm.lifetime.end.p0(i64 8, ptr %9) #10
  ret void
}