; Function Attrs: mustprogress nofree norecurse nosync nounwind willreturn memory(argmem: readwrite) uwtable
define internal void @dc_left_4x4_c(ptr noundef writeonly captures(none) initializes((0, 4)) %0, i64 noundef %1, ptr noundef readonly captures(none) %2, ptr readnone captures(none) %3) #1 {
  %5 = load i8, ptr %2, align 1, !tbaa !8
  %6 = zext i8 %5 to i32
  %7 = getelementptr inbounds nuw i8, ptr %2, i64 1
  %8 = load i8, ptr %7, align 1, !tbaa !8
  %9 = zext i8 %8 to i32
  %10 = getelementptr inbounds nuw i8, ptr %2, i64 2
  %11 = load i8, ptr %10, align 1, !tbaa !8
  %12 = zext i8 %11 to i32
  %13 = getelementptr inbounds nuw i8, ptr %2, i64 3
  %14 = load i8, ptr %13, align 1, !tbaa !8
  %15 = zext i8 %14 to i32
  %16 = add nuw nsw i32 %6, 2
  %17 = add nuw nsw i32 %16, %9
  %18 = add nuw nsw i32 %17, %12
  %19 = add nuw nsw i32 %18, %15
  %20 = lshr i32 %19, 2
  %21 = mul nuw i32 %20, 16843009
  store i32 %21, ptr %0, align 4, !tbaa !8
  %22 = getelementptr inbounds i8, ptr %0, i64 %1
  store i32 %21, ptr %22, align 4, !tbaa !8
  %23 = shl nsw i64 %1, 1
  %24 = getelementptr inbounds i8, ptr %0, i64 %23
  store i32 %21, ptr %24, align 4, !tbaa !8
  %25 = mul nsw i64 %1, 3
  %26 = getelementptr inbounds i8, ptr %0, i64 %25
  store i32 %21, ptr %26, align 4, !tbaa !8
  ret void
}